target datalayout = "e-m:e-p270:32:32-p271:32:32-p272:64:64-i64:64-i128:128-f80:128-n8:16:32:64-S128"
target triple = "x86_64-pc-linux-gnu"

%struct.slurmd_config = type { ptr, ptr, i32, [4096 x i8], ptr, ptr, ptr, ptr, i16, i16, i16, i16, ptr, i16, i64, i16, i16, i16, i16, i16, i16, i16, i16, i16, i16, i16, i64, i64, i32, i32, i16, ptr, ptr, ptr, i32, ptr, ptr, ptr, ptr, ptr, ptr, ptr, ptr, ptr, ptr, i32, ptr, ptr, i16, i32, i32, %struct.log_options_t, i32, i16, i64, i8, i8, i8, i8, i8, %union.pthread_mutex_t, i16, ptr, %union.pthread_cond_t, ptr, %union.pthread_cond_t, i8, i8, ptr, ptr }
%struct.log_options_t = type { i32, i32, i32, i8, i8, i8, i32 }
%union.pthread_mutex_t = type { %struct.__pthread_mutex_s }
%struct.__pthread_mutex_s = type { i32, i32, i32, i32, i32, i16, i16, %struct.__pthread_internal_list }
%struct.__pthread_internal_list = type { ptr, ptr }
%union.pthread_cond_t = type { %struct.__pthread_cond_s }
%struct.__pthread_cond_s = type { %union.__atomic_wide_counter, %union.__atomic_wide_counter, [2 x i32], [2 x i32], i32, i32, [2 x i32] }
%union.__atomic_wide_counter = type { i64 }

; Function Attrs: nounwind uwtable
define dso_local void @pack_slurmd_conf_lite(ptr noundef %0, ptr noundef %1) #0 {
  %3 = alloca ptr, align 8
  %4 = alloca ptr, align 8
  %5 = alloca i32, align 4
  %6 = alloca i32, align 4
  %7 = alloca i32, align 4
  %8 = alloca i32, align 4
  %9 = alloca i32, align 4
  %10 = alloca i32, align 4
  %11 = alloca i32, align 4
  %12 = alloca i32, align 4
  %13 = alloca i32, align 4
  store ptr %0, ptr %3, align 8
  store ptr %1, ptr %4, align 8
  %14 = load ptr, ptr %4, align 8
  call void @pack16(i16 noundef zeroext 11008, ptr noundef %14)
  br label %15

15:                                               ; preds = %2
  call void @llvm.lifetime.start.p0(i64 4, ptr %5) #4
  store i32 0, ptr %5, align 4
  %16 = load ptr, ptr %3, align 8
  %17 = getelementptr inbounds nuw %struct.slurmd_config, ptr %16, i32 0, i32 5
  %18 = load ptr, ptr %17, align 8
  %19 = icmp ne ptr %18, null
  br i1 %19, label %20, label %27

20:                                               ; preds = %15
  %21 = load ptr, ptr %3, align 8
  %22 = getelementptr inbounds nuw %struct.slurmd_config, ptr %21, i32 0, i32 5
  %23 = load ptr, ptr %22, align 8
  %24 = call i64 @strlen(ptr noundef %23) #5
  %25 = trunc i64 %24 to i32
  %26 = add i32 %25, 1
  store i32 %26, ptr %5, align 4
  br label %27

27:                                               ; preds = %20, %15
  %28 = load ptr, ptr %3, align 8
  %29 = getelementptr inbounds nuw %struct.slurmd_config, ptr %28, i32 0, i32 5
  %30 = load ptr, ptr %29, align 8
  %31 = load i32, ptr %5, align 4
  %32 = load ptr, ptr %4, align 8
  call void @packmem(ptr noundef %30, i32 noundef %31, ptr noundef %32)
  call void @llvm.lifetime.end.p0(i64 4, ptr %5) #4
  br label %33

33:                                               ; preds = %27
  %34 = load ptr, ptr %3, align 8
  %35 = getelementptr inbounds nuw %struct.slurmd_config, ptr %34, i32 0, i32 8
  %36 = load i16, ptr %35, align 8
  %37 = load ptr, ptr %4, align 8
  call void @pack16(i16 noundef zeroext %36, ptr noundef %37)
  %38 = load ptr, ptr %3, align 8
  %39 = getelementptr inbounds nuw %struct.slurmd_config, ptr %38, i32 0, i32 9
  %40 = load i16, ptr %39, align 2
  %41 = load ptr, ptr %4, align 8
  call void @pack16(i16 noundef zeroext %40, ptr noundef %41)
  %42 = load ptr, ptr %3, align 8
  %43 = getelementptr inbounds nuw %struct.slurmd_config, ptr %42, i32 0, i32 10
  %44 = load i16, ptr %43, align 4
  %45 = load ptr, ptr %4, align 8
  call void @pack16(i16 noundef zeroext %44, ptr noundef %45)
  %46 = load ptr, ptr %3, align 8
  %47 = getelementptr inbounds nuw %struct.slurmd_config, ptr %46, i32 0, i32 15
  %48 = load i16, ptr %47, align 8
  %49 = load ptr, ptr %4, align 8
  call void @pack16(i16 noundef zeroext %48, ptr noundef %49)
  %50 = load ptr, ptr %3, align 8
  %51 = getelementptr inbounds nuw %struct.slurmd_config, ptr %50, i32 0, i32 11
  %52 = load i16, ptr %51, align 2
  %53 = load ptr, ptr %4, align 8
  call void @pack16(i16 noundef zeroext %52, ptr noundef %53)
  %54 = load ptr, ptr %3, align 8
  %55 = getelementptr inbounds nuw %struct.slurmd_config, ptr %54, i32 0, i32 25
  %56 = load i16, ptr %55, align 4
  %57 = load ptr, ptr %4, align 8
  call void @pack16(i16 noundef zeroext %56, ptr noundef %57)
  br label %58

58:                                               ; preds = %33
  call void @llvm.lifetime.start.p0(i64 4, ptr %6) #4
  store i32 0, ptr %6, align 4
  %59 = load ptr, ptr %3, align 8
  %60 = getelementptr inbounds nuw %struct.slurmd_config, ptr %59, i32 0, i32 12
  %61 = load ptr, ptr %60, align 8
  %62 = icmp ne ptr %61, null
  br i1 %62, label %63, label %70

63:                                               ; preds = %58
  %64 = load ptr, ptr %3, align 8
  %65 = getelementptr inbounds nuw %struct.slurmd_config, ptr %64, i32 0, i32 12
  %66 = load ptr, ptr %65, align 8
  %67 = call i64 @strlen(ptr noundef %66) #5
  %68 = trunc i64 %67 to i32
  %69 = add i32 %68, 1
  store i32 %69, ptr %6, align 4
  br label %70

70:                                               ; preds = %63, %58
  %71 = load ptr, ptr %3, align 8
  %72 = getelementptr inbounds nuw %struct.slurmd_config, ptr %71, i32 0, i32 12
  %73 = load ptr, ptr %72, align 8
  %74 = load i32, ptr %6, align 4
  %75 = load ptr, ptr %4, align 8
  call void @packmem(ptr noundef %73, i32 noundef %74, ptr noundef %75)
  call void @llvm.lifetime.end.p0(i64 4, ptr %6) #4
  br label %76

76:                                               ; preds = %70
  %77 = load ptr, ptr %3, align 8
  %78 = getelementptr inbounds nuw %struct.slurmd_config, ptr %77, i32 0, i32 13
  %79 = load i16, ptr %78, align 8
  %80 = load ptr, ptr %4, align 8
  call void @pack16(i16 noundef zeroext %79, ptr noundef %80)
  %81 = load ptr, ptr %3, align 8
  %82 = getelementptr inbounds nuw %struct.slurmd_config, ptr %81, i32 0, i32 14
  %83 = load i64, ptr %82, align 8
  %84 = load ptr, ptr %4, align 8
  call void @pack64(i64 noundef %83, ptr noundef %84)
  %85 = load ptr, ptr %3, align 8
  %86 = getelementptr inbounds nuw %struct.slurmd_config, ptr %85, i32 0, i32 26
  %87 = load i64, ptr %86, align 8
  %88 = load ptr, ptr %4, align 8
  call void @pack64(i64 noundef %87, ptr noundef %88)
  %89 = load ptr, ptr %3, align 8
  %90 = getelementptr inbounds nuw %struct.slurmd_config, ptr %89, i32 0, i32 30
  %91 = load i16, ptr %90, align 8
  %92 = load ptr, ptr %4, align 8
  call void @pack16(i16 noundef zeroext %91, ptr noundef %92)
  %93 = load ptr, ptr %3, align 8
  %94 = getelementptr inbounds nuw %struct.slurmd_config, ptr %93, i32 0, i32 31
  %95 = load ptr, ptr %94, align 8
  %96 = load ptr, ptr %3, align 8
  %97 = getelementptr inbounds nuw %struct.slurmd_config, ptr %96, i32 0, i32 30
  %98 = load i16, ptr %97, align 8
  %99 = zext i16 %98 to i32
  %100 = load ptr, ptr %4, align 8
  call void @pack16_array(ptr noundef %95, i32 noundef %99, ptr noundef %100)
  %101 = load ptr, ptr %3, align 8
  %102 = getelementptr inbounds nuw %struct.slurmd_config, ptr %101, i32 0, i32 32
  %103 = load ptr, ptr %102, align 8
  %104 = load ptr, ptr %3, align 8
  %105 = getelementptr inbounds nuw %struct.slurmd_config, ptr %104, i32 0, i32 30
  %106 = load i16, ptr %105, align 8
  %107 = zext i16 %106 to i32
  %108 = load ptr, ptr %4, align 8
  call void @pack16_array(ptr noundef %103, i32 noundef %107, ptr noundef %108)
  br label %109

109:                                              ; preds = %76
  call void @llvm.lifetime.start.p0(i64 4, ptr %7) #4
  store i32 0, ptr %7, align 4
  %110 = load ptr, ptr %3, align 8
  %111 = getelementptr inbounds nuw %struct.slurmd_config, ptr %110, i32 0, i32 39
  %112 = load ptr, ptr %111, align 8
  %113 = icmp ne ptr %112, null
  br i1 %113, label %114, label %121

114:                                              ; preds = %109
  %115 = load ptr, ptr %3, align 8
  %116 = getelementptr inbounds nuw %struct.slurmd_config, ptr %115, i32 0, i32 39
  %117 = load ptr, ptr %116, align 8
  %118 = call i64 @strlen(ptr noundef %117) #5
  %119 = trunc i64 %118 to i32
  %120 = add i32 %119, 1
  store i32 %120, ptr %7, align 4
  br label %121

121:                                              ; preds = %114, %109
  %122 = load ptr, ptr %3, align 8
  %123 = getelementptr inbounds nuw %struct.slurmd_config, ptr %122, i32 0, i32 39
  %124 = load ptr, ptr %123, align 8
  %125 = load i32, ptr %7, align 4
  %126 = load ptr, ptr %4, align 8
  call void @packmem(ptr noundef %124, i32 noundef %125, ptr noundef %126)
  call void @llvm.lifetime.end.p0(i64 4, ptr %7) #4
  br label %127

127:                                              ; preds = %121
  br label %128

128:                                              ; preds = %127
  call void @llvm.lifetime.start.p0(i64 4, ptr %8) #4
  store i32 0, ptr %8, align 4
  %129 = load ptr, ptr %3, align 8
  %130 = getelementptr inbounds nuw %struct.slurmd_config, ptr %129, i32 0, i32 46
  %131 = load ptr, ptr %130, align 8
  %132 = icmp ne ptr %131, null
  br i1 %132, label %133, label %140

133:                                              ; preds = %128
  %134 = load ptr, ptr %3, align 8
  %135 = getelementptr inbounds nuw %struct.slurmd_config, ptr %134, i32 0, i32 46
  %136 = load ptr, ptr %135, align 8
  %137 = call i64 @strlen(ptr noundef %136) #5
  %138 = trunc i64 %137 to i32
  %139 = add i32 %138, 1
  store i32 %139, ptr %8, align 4
  br label %140

140:                                              ; preds = %133, %128
  %141 = load ptr, ptr %3, align 8
  %142 = getelementptr inbounds nuw %struct.slurmd_config, ptr %141, i32 0, i32 46
  %143 = load ptr, ptr %142, align 8
  %144 = load i32, ptr %8, align 4
  %145 = load ptr, ptr %4, align 8
  call void @packmem(ptr noundef %143, i32 noundef %144, ptr noundef %145)
  call void @llvm.lifetime.end.p0(i64 4, ptr %8) #4
  br label %146

146:                                              ; preds = %140
  br label %147

147:                                              ; preds = %146
  call void @llvm.lifetime.start.p0(i64 4, ptr %9) #4
  store i32 0, ptr %9, align 4
  %148 = load ptr, ptr %3, align 8
  %149 = getelementptr inbounds nuw %struct.slurmd_config, ptr %148, i32 0, i32 35
  %150 = load ptr, ptr %149, align 8
  %151 = icmp ne ptr %150, null
  br i1 %151, label %152, label %159

152:                                              ; preds = %147
  %153 = load ptr, ptr %3, align 8
  %154 = getelementptr inbounds nuw %struct.slurmd_config, ptr %153, i32 0, i32 35
  %155 = load ptr, ptr %154, align 8
  %156 = call i64 @strlen(ptr noundef %155) #5
  %157 = trunc i64 %156 to i32
  %158 = add i32 %157, 1
  store i32 %158, ptr %9, align 4
  br label %159

159:                                              ; preds = %152, %147
  %160 = load ptr, ptr %3, align 8
  %161 = getelementptr inbounds nuw %struct.slurmd_config, ptr %160, i32 0, i32 35
  %162 = load ptr, ptr %161, align 8
  %163 = load i32, ptr %9, align 4
  %164 = load ptr, ptr %4, align 8
  call void @packmem(ptr noundef %162, i32 noundef %163, ptr noundef %164)
  call void @llvm.lifetime.end.p0(i64 4, ptr %9) #4
  br label %165

165:                                              ; preds = %159
  br label %166

166:                                              ; preds = %165
  call void @llvm.lifetime.start.p0(i64 4, ptr %10) #4
  store i32 0, ptr %10, align 4
  %167 = load ptr, ptr %3, align 8
  %168 = getelementptr inbounds nuw %struct.slurmd_config, ptr %167, i32 0, i32 42
  %169 = load ptr, ptr %168, align 8
  %170 = icmp ne ptr %169, null
  br i1 %170, label %171, label %178

171:                                              ; preds = %166
  %172 = load ptr, ptr %3, align 8
  %173 = getelementptr inbounds nuw %struct.slurmd_config, ptr %172, i32 0, i32 42
  %174 = load ptr, ptr %173, align 8
  %175 = call i64 @strlen(ptr noundef %174) #5
  %176 = trunc i64 %175 to i32
  %177 = add i32 %176, 1
  store i32 %177, ptr %10, align 4
  br label %178

178:                                              ; preds = %171, %166
  %179 = load ptr, ptr %3, align 8
  %180 = getelementptr inbounds nuw %struct.slurmd_config, ptr %179, i32 0, i32 42
  %181 = load ptr, ptr %180, align 8
  %182 = load i32, ptr %10, align 4
  %183 = load ptr, ptr %4, align 8
  call void @packmem(ptr noundef %181, i32 noundef %182, ptr noundef %183)
  call void @llvm.lifetime.end.p0(i64 4, ptr %10) #4
  br label %184

184:                                              ; preds = %178
  %185 = load ptr, ptr %3, align 8
  %186 = getelementptr inbounds nuw %struct.slurmd_config, ptr %185, i32 0, i32 52
  %187 = load i32, ptr %186, align 8
  %188 = load ptr, ptr %4, align 8
  call void @pack32(i32 noundef %187, ptr noundef %188)
  %189 = load ptr, ptr %3, align 8
  %190 = getelementptr inbounds nuw %struct.slurmd_config, ptr %189, i32 0, i32 45
  %191 = load i32, ptr %190, align 8
  %192 = load ptr, ptr %4, align 8
  call void @pack32(i32 noundef %191, ptr noundef %192)
  br label %193

193:                                              ; preds = %184
  call void @llvm.lifetime.start.p0(i64 4, ptr %11) #4
  store i32 0, ptr %11, align 4
  %194 = load ptr, ptr %3, align 8
  %195 = getelementptr inbounds nuw %struct.slurmd_config, ptr %194, i32 0, i32 47
  %196 = load ptr, ptr %195, align 8
  %197 = icmp ne ptr %196, null
  br i1 %197, label %198, label %205

198:                                              ; preds = %193
  %199 = load ptr, ptr %3, align 8
  %200 = getelementptr inbounds nuw %struct.slurmd_config, ptr %199, i32 0, i32 47
  %201 = load ptr, ptr %200, align 8
  %202 = call i64 @strlen(ptr noundef %201) #5
  %203 = trunc i64 %202 to i32
  %204 = add i32 %203, 1
  store i32 %204, ptr %11, align 4
  br label %205

205:                                              ; preds = %198, %193
  %206 = load ptr, ptr %3, align 8
  %207 = getelementptr inbounds nuw %struct.slurmd_config, ptr %206, i32 0, i32 47
  %208 = load ptr, ptr %207, align 8
  %209 = load i32, ptr %11, align 4
  %210 = load ptr, ptr %4, align 8
  call void @packmem(ptr noundef %208, i32 noundef %209, ptr noundef %210)
  call void @llvm.lifetime.end.p0(i64 4, ptr %11) #4
  br label %211

211:                                              ; preds = %205
  %212 = load ptr, ptr %3, align 8
  %213 = getelementptr inbounds nuw %struct.slurmd_config, ptr %212, i32 0, i32 55
  %214 = load i8, ptr %213, align 8, !range !8, !noundef !9
  %215 = trunc i8 %214 to i1
  %216 = load ptr, ptr %4, align 8
  call void @packbool(i1 noundef zeroext %215, ptr noundef %216)
  br label %217

217:                                              ; preds = %211
  call void @llvm.lifetime.start.p0(i64 4, ptr %12) #4
  store i32 0, ptr %12, align 4
  %218 = load ptr, ptr %3, align 8
  %219 = getelementptr inbounds nuw %struct.slurmd_config, ptr %218, i32 0, i32 36
  %220 = load ptr, ptr %219, align 8
  %221 = icmp ne ptr %220, null
  br i1 %221, label %222, label %229

222:                                              ; preds = %217
  %223 = load ptr, ptr %3, align 8
  %224 = getelementptr inbounds nuw %struct.slurmd_config, ptr %223, i32 0, i32 36
  %225 = load ptr, ptr %224, align 8
  %226 = call i64 @strlen(ptr noundef %225) #5
  %227 = trunc i64 %226 to i32
  %228 = add i32 %227, 1
  store i32 %228, ptr %12, align 4
  br label %229

229:                                              ; preds = %222, %217
  %230 = load ptr, ptr %3, align 8
  %231 = getelementptr inbounds nuw %struct.slurmd_config, ptr %230, i32 0, i32 36
  %232 = load ptr, ptr %231, align 8
  %233 = load i32, ptr %12, align 4
  %234 = load ptr, ptr %4, align 8
  call void @packmem(ptr noundef %232, i32 noundef %233, ptr noundef %234)
  call void @llvm.lifetime.end.p0(i64 4, ptr %12) #4
  br label %235

235:                                              ; preds = %229
  br label %236

236:                                              ; preds = %235
  call void @llvm.lifetime.start.p0(i64 4, ptr %13) #4
  store i32 0, ptr %13, align 4
  %237 = load ptr, ptr %3, align 8
  %238 = getelementptr inbounds nuw %struct.slurmd_config, ptr %237, i32 0, i32 37
  %239 = load ptr, ptr %238, align 8
  %240 = icmp ne ptr %239, null
  br i1 %240, label %241, label %248

241:                                              ; preds = %236
  %242 = load ptr, ptr %3, align 8
  %243 = getelementptr inbounds nuw %struct.slurmd_config, ptr %242, i32 0, i32 37
  %244 = load ptr, ptr %243, align 8
  %245 = call i64 @strlen(ptr noundef %244) #5
  %246 = trunc i64 %245 to i32
  %247 = add i32 %246, 1
  store i32 %247, ptr %13, align 4
  br label %248

248:                                              ; preds = %241, %236
  %249 = load ptr, ptr %3, align 8
  %250 = getelementptr inbounds nuw %struct.slurmd_config, ptr %249, i32 0, i32 37
  %251 = load ptr, ptr %250, align 8
  %252 = load i32, ptr %13, align 4
  %253 = load ptr, ptr %4, align 8
  call void @packmem(ptr noundef %251, i32 noundef %252, ptr noundef %253)
  call void @llvm.lifetime.end.p0(i64 4, ptr %13) #4
  br label %254

254:                                              ; preds = %248
  %255 = load ptr, ptr %3, align 8
  %256 = getelementptr inbounds nuw %struct.slurmd_config, ptr %255, i32 0, i32 48
  %257 = load i16, ptr %256, align 8
  %258 = load ptr, ptr %4, align 8
  call void @pack16(i16 noundef zeroext %257, ptr noundef %258)
  ret void
}