; Function Attrs: nounwind uwtable
define dso_local void @pack_slurmd_conf_lite(ptr noundef readonly captures(none) %0, ptr noundef %1) local_unnamed_addr #0 {
  tail call void @pack16(i16 noundef zeroext 11008, ptr noundef %1) #4
  %3 = getelementptr inbounds nuw i8, ptr %0, i64 4128
  %4 = load ptr, ptr %3, align 8
  %.not = icmp eq ptr %4, null
  br i1 %.not, label %9, label %5

5:                                                ; preds = %2
  %6 = tail call i64 @strlen(ptr noundef nonnull dereferenceable(1) %4) #5
  %7 = trunc i64 %6 to i32
  %8 = add i32 %7, 1
  br label %9

9:                                                ; preds = %5, %2
  %.086 = phi i32 [ %8, %5 ], [ 0, %2 ]
  tail call void @packmem(ptr noundef %4, i32 noundef %.086, ptr noundef %1) #4
  %10 = getelementptr inbounds nuw i8, ptr %0, i64 4152
  %11 = load i16, ptr %10, align 8
  tail call void @pack16(i16 noundef zeroext %11, ptr noundef %1) #4
  %12 = getelementptr inbounds nuw i8, ptr %0, i64 4154
  %13 = load i16, ptr %12, align 2
  tail call void @pack16(i16 noundef zeroext %13, ptr noundef %1) #4
  %14 = getelementptr inbounds nuw i8, ptr %0, i64 4156
  %15 = load i16, ptr %14, align 4
  tail call void @pack16(i16 noundef zeroext %15, ptr noundef %1) #4
  %16 = getelementptr inbounds nuw i8, ptr %0, i64 4184
  %17 = load i16, ptr %16, align 8
  tail call void @pack16(i16 noundef zeroext %17, ptr noundef %1) #4
  %18 = getelementptr inbounds nuw i8, ptr %0, i64 4158
  %19 = load i16, ptr %18, align 2
  tail call void @pack16(i16 noundef zeroext %19, ptr noundef %1) #4
  %20 = getelementptr inbounds nuw i8, ptr %0, i64 4204
  %21 = load i16, ptr %20, align 4
  tail call void @pack16(i16 noundef zeroext %21, ptr noundef %1) #4
  %22 = getelementptr inbounds nuw i8, ptr %0, i64 4160
  %23 = load ptr, ptr %22, align 8
  %.not96 = icmp eq ptr %23, null
  br i1 %.not96, label %28, label %24

24:                                               ; preds = %9
  %25 = tail call i64 @strlen(ptr noundef nonnull dereferenceable(1) %23) #5
  %26 = trunc i64 %25 to i32
  %27 = add i32 %26, 1
  br label %28

28:                                               ; preds = %24, %9
  %.085 = phi i32 [ %27, %24 ], [ 0, %9 ]
  tail call void @packmem(ptr noundef %23, i32 noundef %.085, ptr noundef %1) #4
  %29 = getelementptr inbounds nuw i8, ptr %0, i64 4168
  %30 = load i16, ptr %29, align 8
  tail call void @pack16(i16 noundef zeroext %30, ptr noundef %1) #4
  %31 = getelementptr inbounds nuw i8, ptr %0, i64 4176
  %32 = load i64, ptr %31, align 8
  tail call void @pack64(i64 noundef %32, ptr noundef %1) #4
  %33 = getelementptr inbounds nuw i8, ptr %0, i64 4208
  %34 = load i64, ptr %33, align 8
  tail call void @pack64(i64 noundef %34, ptr noundef %1) #4
  %35 = getelementptr inbounds nuw i8, ptr %0, i64 4232
  %36 = load i16, ptr %35, align 8
  tail call void @pack16(i16 noundef zeroext %36, ptr noundef %1) #4
  %37 = getelementptr inbounds nuw i8, ptr %0, i64 4240
  %38 = load ptr, ptr %37, align 8
  %39 = load i16, ptr %35, align 8
  %40 = zext i16 %39 to i32
  tail call void @pack16_array(ptr noundef %38, i32 noundef %40, ptr noundef %1) #4
  %41 = getelementptr inbounds nuw i8, ptr %0, i64 4248
  %42 = load ptr, ptr %41, align 8
  %43 = load i16, ptr %35, align 8
  %44 = zext i16 %43 to i32
  tail call void @pack16_array(ptr noundef %42, i32 noundef %44, ptr noundef %1) #4
  %45 = getelementptr inbounds nuw i8, ptr %0, i64 4304
  %46 = load ptr, ptr %45, align 8
  %.not97 = icmp eq ptr %46, null
  br i1 %.not97, label %51, label %47

47:                                               ; preds = %28
  %48 = tail call i64 @strlen(ptr noundef nonnull dereferenceable(1) %46) #5
  %49 = trunc i64 %48 to i32
  %50 = add i32 %49, 1
  br label %51

51:                                               ; preds = %47, %28
  %.084 = phi i32 [ %50, %47 ], [ 0, %28 ]
  tail call void @packmem(ptr noundef %46, i32 noundef %.084, ptr noundef %1) #4
  %52 = getelementptr inbounds nuw i8, ptr %0, i64 4360
  %53 = load ptr, ptr %52, align 8
  %.not98 = icmp eq ptr %53, null
  br i1 %.not98, label %58, label %54

54:                                               ; preds = %51
  %55 = tail call i64 @strlen(ptr noundef nonnull dereferenceable(1) %53) #5
  %56 = trunc i64 %55 to i32
  %57 = add i32 %56, 1
  br label %58

58:                                               ; preds = %54, %51
  %.083 = phi i32 [ %57, %54 ], [ 0, %51 ]
  tail call void @packmem(ptr noundef %53, i32 noundef %.083, ptr noundef %1) #4
  %59 = getelementptr inbounds nuw i8, ptr %0, i64 4272
  %60 = load ptr, ptr %59, align 8
  %.not99 = icmp eq ptr %60, null
  br i1 %.not99, label %65, label %61

61:                                               ; preds = %58
  %62 = tail call i64 @strlen(ptr noundef nonnull dereferenceable(1) %60) #5
  %63 = trunc i64 %62 to i32
  %64 = add i32 %63, 1
  br label %65

65:                                               ; preds = %61, %58
  %.082 = phi i32 [ %64, %61 ], [ 0, %58 ]
  tail call void @packmem(ptr noundef %60, i32 noundef %.082, ptr noundef %1) #4
  %66 = getelementptr inbounds nuw i8, ptr %0, i64 4328
  %67 = load ptr, ptr %66, align 8
  %.not100 = icmp eq ptr %67, null
  br i1 %.not100, label %72, label %68

68:                                               ; preds = %65
  %69 = tail call i64 @strlen(ptr noundef nonnull dereferenceable(1) %67) #5
  %70 = trunc i64 %69 to i32
  %71 = add i32 %70, 1
  br label %72

72:                                               ; preds = %68, %65
  %.081 = phi i32 [ %71, %68 ], [ 0, %65 ]
  tail call void @packmem(ptr noundef %67, i32 noundef %.081, ptr noundef %1) #4
  %73 = getelementptr inbounds nuw i8, ptr %0, i64 4408
  %74 = load i32, ptr %73, align 8
  tail call void @pack32(i32 noundef %74, ptr noundef %1) #4
  %75 = getelementptr inbounds nuw i8, ptr %0, i64 4352
  %76 = load i32, ptr %75, align 8
  tail call void @pack32(i32 noundef %76, ptr noundef %1) #4
  %77 = getelementptr inbounds nuw i8, ptr %0, i64 4368
  %78 = load ptr, ptr %77, align 8
  %.not101 = icmp eq ptr %78, null
  br i1 %.not101, label %83, label %79

79:                                               ; preds = %72
  %80 = tail call i64 @strlen(ptr noundef nonnull dereferenceable(1) %78) #5
  %81 = trunc i64 %80 to i32
  %82 = add i32 %81, 1
  br label %83

83:                                               ; preds = %79, %72
  %.080 = phi i32 [ %82, %79 ], [ 0, %72 ]
  tail call void @packmem(ptr noundef %78, i32 noundef %.080, ptr noundef %1) #4
  %84 = getelementptr inbounds nuw i8, ptr %0, i64 4424
  %85 = load i8, ptr %84, align 8, !range !8, !noundef !9
  %86 = trunc nuw i8 %85 to i1
  tail call void @packbool(i1 noundef zeroext %86, ptr noundef %1) #4
  %87 = getelementptr inbounds nuw i8, ptr %0, i64 4280
  %88 = load ptr, ptr %87, align 8
  %.not102 = icmp eq ptr %88, null
  br i1 %.not102, label %93, label %89

89:                                               ; preds = %83
  %90 = tail call i64 @strlen(ptr noundef nonnull dereferenceable(1) %88) #5
  %91 = trunc i64 %90 to i32
  %92 = add i32 %91, 1
  br label %93

93:                                               ; preds = %89, %83
  %.079 = phi i32 [ %92, %89 ], [ 0, %83 ]
  tail call void @packmem(ptr noundef %88, i32 noundef %.079, ptr noundef %1) #4
  %94 = getelementptr inbounds nuw i8, ptr %0, i64 4288
  %95 = load ptr, ptr %94, align 8
  %.not103 = icmp eq ptr %95, null
  br i1 %.not103, label %100, label %96

96:                                               ; preds = %93
  %97 = tail call i64 @strlen(ptr noundef nonnull dereferenceable(1) %95) #5
  %98 = trunc i64 %97 to i32
  %99 = add i32 %98, 1
  br label %100

100:                                              ; preds = %96, %93
  %.0 = phi i32 [ %99, %96 ], [ 0, %93 ]
  tail call void @packmem(ptr noundef %95, i32 noundef %.0, ptr noundef %1) #4
  %101 = getelementptr inbounds nuw i8, ptr %0, i64 4376
  %102 = load i16, ptr %101, align 8
  tail call void @pack16(i16 noundef zeroext %102, ptr noundef %1) #4
  ret void
}